target datalayout = "e-m:e-p270:32:32-p271:32:32-p272:64:64-i64:64-i128:128-f80:128-n8:16:32:64-S128"
target triple = "x86_64-unknown-linux-gnu"

%"class.std::__cxx11::basic_string" = type { %"struct.std::__cxx11::basic_string<char>::_Alloc_hider", i64, %union.anon }
%"struct.std::__cxx11::basic_string<char>::_Alloc_hider" = type { ptr }
%union.anon = type { i64, [8 x i8] }
%"class.folly::SharedMutexImpl" = type { %"struct.std::atomic.16" }
%"struct.std::atomic.16" = type { %"struct.std::__atomic_base.17" }
%"struct.std::__atomic_base.17" = type { i32 }
%"class.facebook::velox::memory::MemoryPool" = type { ptr, %"class.std::enable_shared_from_this", %"class.std::__cxx11::basic_string", i32, i16, %"class.std::shared_ptr", i64, i8, i8, i8, i8, i8, %"struct.std::atomic", %"class.std::__exception_ptr::exception_ptr", %"class.folly::SharedMutexImpl", %"class.std::unordered_map" }
%"class.std::enable_shared_from_this" = type { %"class.std::weak_ptr" }
%"class.std::weak_ptr" = type { %"class.std::__weak_ptr" }
%"class.std::__weak_ptr" = type { ptr, %"class.std::__weak_count" }
%"class.std::__weak_count" = type { ptr }
%"class.std::shared_ptr" = type { %"class.std::__shared_ptr" }
%"class.std::__shared_ptr" = type { ptr, %"class.std::__shared_count" }
%"class.std::__shared_count" = type { ptr }
%"struct.std::atomic" = type { %"struct.std::__atomic_base" }
%"struct.std::__atomic_base" = type { i8 }
%"class.std::__exception_ptr::exception_ptr" = type { ptr }
%"class.std::unordered_map" = type { %"class.std::_Hashtable" }
%"class.std::_Hashtable" = type { ptr, i64, %"struct.std::__detail::_Hash_node_base", i64, %"struct.std::__detail::_Prime_rehash_policy", ptr }
%"struct.std::__detail::_Hash_node_base" = type { ptr }
%"struct.std::__detail::_Prime_rehash_policy" = type { float, i64 }
%"class.folly::SharedMutexImpl<false>::WriteHolder" = type { ptr }

; Function Attrs: mustprogress uwtable
define linkonce_odr noundef i64 @_ZNSt10_HashtableINSt7__cxx1112basic_stringIcSt11char_traitsIcESaIcEEESt4pairIKS5_St8weak_ptrIN8facebook5velox6memory10MemoryPoolEEESaISE_ENSt8__detail10_Select1stESt8equal_toIS5_ESt4hashIS5_ENSG_18_Mod_range_hashingENSG_20_Default_ranged_hashENSG_20_Prime_rehash_policyENSG_17_Hashtable_traitsILb1ELb0ELb1EEEE5eraseERS7_(ptr noundef nonnull align 8 dereferenceable(56) %this, ptr noundef nonnull align 8 dereferenceable(32) %__k) #0 comdat align 2 {
entry:
  %this.addr = alloca ptr, align 8
  %__k.addr = alloca ptr, align 8
  store ptr %this, ptr %this.addr, align 8
  store ptr %__k, ptr %__k.addr, align 8
  %this1 = load ptr, ptr %this.addr, align 8
  %0 = load ptr, ptr %__k.addr, align 8
  %call = call noundef i64 @_ZNSt10_HashtableINSt7__cxx1112basic_stringIcSt11char_traitsIcESaIcEEESt4pairIKS5_St8weak_ptrIN8facebook5velox6memory10MemoryPoolEEESaISE_ENSt8__detail10_Select1stESt8equal_toIS5_ESt4hashIS5_ENSG_18_Mod_range_hashingENSG_20_Default_ranged_hashENSG_20_Prime_rehash_policyENSG_17_Hashtable_traitsILb1ELb0ELb1EEEE8_M_eraseESt17integral_constantIbLb1EERS7_(ptr noundef nonnull align 8 dereferenceable(56) %this1, ptr noundef nonnull align 8 dereferenceable(32) %0)
  ret i64 %call
}

; Function Attrs: mustprogress uwtable
define linkonce_odr noundef i64 @_ZNSt13unordered_mapINSt7__cxx1112basic_stringIcSt11char_traitsIcESaIcEEESt8weak_ptrIN8facebook5velox6memory10MemoryPoolEESt4hashIS5_ESt8equal_toIS5_ESaISt4pairIKS5_SB_EEE5eraseERSH_(ptr noundef nonnull align 8 dereferenceable(56) %this, ptr noundef nonnull align 8 dereferenceable(32) %__x) #0 comdat align 2 {
entry:
  %this.addr = alloca ptr, align 8
  %__x.addr = alloca ptr, align 8
  store ptr %this, ptr %this.addr, align 8
  store ptr %__x, ptr %__x.addr, align 8
  %this1 = load ptr, ptr %this.addr, align 8
  %_M_h = getelementptr inbounds %"class.std::unordered_map", ptr %this1, i32 0, i32 0
  %0 = load ptr, ptr %__x.addr, align 8
  %call = call noundef i64 @_ZNSt10_HashtableINSt7__cxx1112basic_stringIcSt11char_traitsIcESaIcEEESt4pairIKS5_St8weak_ptrIN8facebook5velox6memory10MemoryPoolEEESaISE_ENSt8__detail10_Select1stESt8equal_toIS5_ESt4hashIS5_ENSG_18_Mod_range_hashingENSG_20_Default_ranged_hashENSG_20_Prime_rehash_policyENSG_17_Hashtable_traitsILb1ELb0ELb1EEEE5eraseERS7_(ptr noundef nonnull align 8 dereferenceable(56) %_M_h, ptr noundef nonnull align 8 dereferenceable(32) %0)
  ret i64 %call
}

; Function Attrs: mustprogress uwtable
define void @_ZN8facebook5velox6memory10MemoryPool9dropChildEPKS2_(ptr noundef nonnull align 8 dereferenceable(168) %this, ptr noundef %child) unnamed_addr #0 align 2 personality ptr @__gxx_personality_v0 {
entry:
  %this.addr = alloca ptr, align 8
  %child.addr = alloca ptr, align 8
  %guard = alloca %"class.folly::SharedMutexImpl<false>::WriteHolder", align 8
  %ret = alloca i64, align 8
  %exn.slot = alloca ptr, align 8
  %ehselector.slot = alloca i32, align 4
  store ptr %this, ptr %this.addr, align 8
  store ptr %child, ptr %child.addr, align 8
  %this1 = load ptr, ptr %this.addr, align 8
  br label %do.body

do.body:                                          ; preds = %entry
  %kind_ = getelementptr inbounds %"class.facebook::velox::memory::MemoryPool", ptr %this1, i32 0, i32 3
  %0 = load i32, ptr %kind_, align 8
  %cmp = icmp ne i32 %0, 1
  br i1 %cmp, label %if.then, label %if.end

if.then:                                          ; preds = %do.body
  call void @llvm.trap()
  br label %if.end

if.end:                                           ; preds = %if.then, %do.body
  br label %do.end

do.end:                                           ; preds = %if.end
  %poolMutex_ = getelementptr inbounds %"class.facebook::velox::memory::MemoryPool", ptr %this1, i32 0, i32 14
  call void @_ZN5folly15SharedMutexImplILb0EvSt6atomicNS_24SharedMutexPolicyDefaultEE11WriteHolderC1ERS3_(ptr noundef nonnull align 8 dereferenceable(8) %guard, ptr noundef nonnull align 4 dereferenceable(4) %poolMutex_)
  %children_ = getelementptr inbounds %"class.facebook::velox::memory::MemoryPool", ptr %this1, i32 0, i32 15
  %1 = load ptr, ptr %child.addr, align 8
  %vtable = load ptr, ptr %1, align 8
  %vfn = getelementptr inbounds ptr, ptr %vtable, i64 2
  %2 = load ptr, ptr %vfn, align 8
  %call = invoke noundef nonnull align 8 dereferenceable(32) ptr %2(ptr noundef nonnull align 8 dereferenceable(168) %1)
          to label %invoke.cont unwind label %lpad

invoke.cont:                                      ; preds = %do.end
  %call3 = invoke noundef i64 @_ZNSt13unordered_mapINSt7__cxx1112basic_stringIcSt11char_traitsIcESaIcEEESt8weak_ptrIN8facebook5velox6memory10MemoryPoolEESt4hashIS5_ESt8equal_toIS5_ESaISt4pairIKS5_SB_EEE5eraseERSH_(ptr noundef nonnull align 8 dereferenceable(56) %children_, ptr noundef nonnull align 8 dereferenceable(32) %call)
          to label %invoke.cont2 unwind label %lpad

invoke.cont2:                                     ; preds = %invoke.cont
  store i64 %call3, ptr %ret, align 8
  %3 = load i64, ptr %ret, align 8
  %cmp4 = icmp eq i64 %3, 1
  %lnot = xor i1 %cmp4, true
  br i1 %lnot, label %if.then5, label %if.end6

if.then5:                                         ; preds = %invoke.cont2
  call void @llvm.trap()
  br label %if.end6

lpad:                                             ; preds = %invoke.cont, %do.end
  %4 = landingpad { ptr, i32 }
          cleanup
  %5 = extractvalue { ptr, i32 } %4, 0
  store ptr %5, ptr %exn.slot, align 8
  %6 = extractvalue { ptr, i32 } %4, 1
  store i32 %6, ptr %ehselector.slot, align 4
  call void @_ZN5folly15SharedMutexImplILb0EvSt6atomicNS_24SharedMutexPolicyDefaultEE11WriteHolderD1Ev(ptr noundef nonnull align 8 dereferenceable(8) %guard) #11
  br label %eh.resume

if.end6:                                          ; preds = %if.then5, %invoke.cont2
  call void @_ZN5folly15SharedMutexImplILb0EvSt6atomicNS_24SharedMutexPolicyDefaultEE11WriteHolderD1Ev(ptr noundef nonnull align 8 dereferenceable(8) %guard) #11
  ret void

eh.resume:                                        ; preds = %lpad
  %exn = load ptr, ptr %exn.slot, align 8
  %sel = load i32, ptr %ehselector.slot, align 4
  %lpad.val = insertvalue { ptr, i32 } poison, ptr %exn, 0
  %lpad.val7 = insertvalue { ptr, i32 } %lpad.val, i32 %sel, 1
  resume { ptr, i32 } %lpad.val7
}