; Function Attrs: mustprogress uwtable
define void @_ZN8facebook5velox6memory10MemoryPool9dropChildEPKS2_(ptr noundef nonnull align 8 dereferenceable(168) %this, ptr noundef %child) unnamed_addr #0 align 2 personality ptr @__gxx_personality_v0 {
entry:
  %guard = alloca %"class.folly::SharedMutexImpl<false>::WriteHolder", align 8
  %kind_ = getelementptr inbounds i8, ptr %this, i64 56
  %0 = load i32, ptr %kind_, align 8
  %cmp.not = icmp eq i32 %0, 1
  br i1 %cmp.not, label %do.end, label %if.then

if.then:                                          ; preds = %entry
  tail call void @llvm.trap()
  unreachable

do.end:                                           ; preds = %entry
  %poolMutex_ = getelementptr inbounds i8, ptr %this, i64 104
  call void @_ZN5folly15SharedMutexImplILb0EvSt6atomicNS_24SharedMutexPolicyDefaultEE11WriteHolderC1ERS3_(ptr noundef nonnull align 8 dereferenceable(8) %guard, ptr noundef nonnull align 4 dereferenceable(4) %poolMutex_)
  %vtable = load ptr, ptr %child, align 8
  %vfn = getelementptr inbounds i8, ptr %vtable, i64 16
  %1 = load ptr, ptr %vfn, align 8
  %call = invoke noundef nonnull align 8 dereferenceable(32) ptr %1(ptr noundef nonnull align 8 dereferenceable(168) %child)
          to label %invoke.cont unwind label %lpad

invoke.cont:                                      ; preds = %do.end
  %children_ = getelementptr inbounds i8, ptr %this, i64 112
  %call.i.i1 = invoke noundef i64 @_ZNSt10_HashtableINSt7__cxx1112basic_stringIcSt11char_traitsIcESaIcEEESt4pairIKS5_St8weak_ptrIN8facebook5velox6memory10MemoryPoolEEESaISE_ENSt8__detail10_Select1stESt8equal_toIS5_ESt4hashIS5_ENSG_18_Mod_range_hashingENSG_20_Default_ranged_hashENSG_20_Prime_rehash_policyENSG_17_Hashtable_traitsILb1ELb0ELb1EEEE8_M_eraseESt17integral_constantIbLb1EERS7_(ptr noundef nonnull align 8 dereferenceable(56) %children_, ptr noundef nonnull align 8 dereferenceable(32) %call)
          to label %invoke.cont2 unwind label %lpad

invoke.cont2:                                     ; preds = %invoke.cont
  %cmp4.not = icmp eq i64 %call.i.i1, 1
  br i1 %cmp4.not, label %if.end6, label %if.then5

if.then5:                                         ; preds = %invoke.cont2
  call void @llvm.trap()
  unreachable

lpad:                                             ; preds = %invoke.cont, %do.end
  %2 = landingpad { ptr, i32 }
          cleanup
  call void @_ZN5folly15SharedMutexImplILb0EvSt6atomicNS_24SharedMutexPolicyDefaultEE11WriteHolderD1Ev(ptr noundef nonnull align 8 dereferenceable(8) %guard) #26
  resume { ptr, i32 } %2

if.end6:                                          ; preds = %invoke.cont2
  call void @_ZN5folly15SharedMutexImplILb0EvSt6atomicNS_24SharedMutexPolicyDefaultEE11WriteHolderD1Ev(ptr noundef nonnull align 8 dereferenceable(8) %guard) #26
  ret void
}